; Function Attrs: mustprogress nounwind uwtable
define hidden noundef ptr @_ZN10Management55com_sun_management_internal_DiagnosticCommandImpl_klassEP10JavaThread(ptr noundef %0) local_unnamed_addr #0 align 2 {
  %2 = load ptr, ptr @_ZN10Management28_diagnosticCommandImpl_klassE, align 8
  %3 = icmp eq ptr %2, null
  br i1 %3, label %4, label %19

4:                                                ; preds = %1
  %5 = load ptr, ptr getelementptr inbounds (i8, ptr @_ZN6Symbol11_vm_symbolsE, i64 8640), align 8
  %6 = tail call noundef ptr @_ZN16SystemDictionary15resolve_or_failEP6Symbol6HandleS2_bP10JavaThread(ptr noundef %5, ptr null, ptr null, i1 noundef zeroext true, ptr noundef %0) #17
  %7 = getelementptr inbounds i8, ptr %0, i64 8
  %8 = load ptr, ptr %7, align 8
  %.not.i = icmp eq ptr %8, null
  br i1 %.not.i, label %9, label %_ZN10Management25load_and_initialize_klassEP6SymbolP10JavaThread.exit.thread

9:                                                ; preds = %4
  %10 = load ptr, ptr %6, align 8
  %11 = getelementptr inbounds i8, ptr %10, i64 168
  %12 = load ptr, ptr %11, align 8
  %13 = tail call noundef zeroext i1 %12(ptr noundef nonnull align 8 dereferenceable(464) %6) #17
  br i1 %13, label %14, label %_ZN10Management25load_and_initialize_klassEP6SymbolP10JavaThread.exit

14:                                               ; preds = %9
  %15 = load ptr, ptr %6, align 8
  %16 = getelementptr inbounds i8, ptr %15, i64 176
  %17 = load ptr, ptr %16, align 8
  tail call void %17(ptr noundef nonnull align 8 dereferenceable(464) %6, ptr noundef nonnull %0) #17
  %18 = load ptr, ptr %7, align 8
  %.not.i.i = icmp eq ptr %18, null
  br i1 %.not.i.i, label %.sink.split, label %_ZN10Management25load_and_initialize_klassEP6SymbolP10JavaThread.exit.thread

_ZN10Management25load_and_initialize_klassEP6SymbolP10JavaThread.exit.thread: ; preds = %4, %14
  br label %.sink.split

_ZN10Management25load_and_initialize_klassEP6SymbolP10JavaThread.exit: ; preds = %9
  %.pr.pr = load ptr, ptr %7, align 8
  store ptr %6, ptr @_ZN10Management28_diagnosticCommandImpl_klassE, align 8
  %.not = icmp eq ptr %.pr.pr, null
  %spec.select = select i1 %.not, ptr %6, ptr null
  br label %19

.sink.split:                                      ; preds = %14, %_ZN10Management25load_and_initialize_klassEP6SymbolP10JavaThread.exit.thread
  %.sink = phi ptr [ null, %_ZN10Management25load_and_initialize_klassEP6SymbolP10JavaThread.exit.thread ], [ %6, %14 ]
  store ptr %.sink, ptr @_ZN10Management28_diagnosticCommandImpl_klassE, align 8
  br label %19

19:                                               ; preds = %_ZN10Management25load_and_initialize_klassEP6SymbolP10JavaThread.exit, %.sink.split, %1
  %.0 = phi ptr [ %2, %1 ], [ %spec.select, %_ZN10Management25load_and_initialize_klassEP6SymbolP10JavaThread.exit ], [ %.sink, %.sink.split ]
  ret ptr %.0
}